target datalayout = "e-m:e-p270:32:32-p271:32:32-p272:64:64-i64:64-i128:128-f80:128-n8:16:32:64-S128"
target triple = "x86_64-pc-linux-gnu"

%struct.pmix_class_t = type { ptr, ptr, ptr, ptr, i32, i32, ptr, ptr, i64 }
%union.pthread_mutex_t = type { %struct.__pthread_mutex_s }
%struct.__pthread_mutex_s = type { i32, i32, i32, i32, i32, i16, i16, %struct.__pthread_internal_list }
%struct.__pthread_internal_list = type { ptr, ptr }
%struct.pmix_tma = type { ptr, ptr, ptr, ptr, ptr, ptr, ptr, ptr }
%struct.pmix_proc = type { [256 x i8], i32 }
%struct.pmix_object_t = type { %union.pthread_mutex_t, ptr, i32, %struct.pmix_tma }
%struct.timeval = type { i64, i64 }
%struct.pmix_list_t = type { %struct.pmix_object_t, %struct.pmix_list_item_t, i64 }
%struct.pmix_list_item_t = type { %struct.pmix_object_t, ptr, ptr, i32 }
%struct.event = type { %struct.event_callback, %union.anon.1, i32, ptr, %union.anon.3, i16, i16, %struct.timeval }
%struct.event_callback = type { %struct.anon, i16, i8, i8, %union.anon.0, ptr }
%struct.anon = type { ptr, ptr }
%union.anon.0 = type { ptr }
%union.anon.1 = type { %struct.anon.2 }
%struct.anon.2 = type { ptr, ptr }
%union.anon.3 = type { %struct.anon.4 }
%struct.anon.4 = type { %struct.anon.5, %struct.timeval }
%struct.anon.5 = type { ptr, ptr }
%struct.pmix_pfexec_child_t = type { %struct.pmix_list_item_t, %struct.event, %struct.pmix_proc, i32, i8, i32, [2 x i32], %struct.pmix_pfexec_base_io_conf_t, %struct.pmix_iof_sink_t, ptr, ptr }
%struct.pmix_pfexec_base_io_conf_t = type { i32, i8, [2 x i32], [2 x i32], [2 x i32] }
%struct.pmix_iof_sink_t = type { %struct.pmix_list_item_t, %struct.pmix_proc, i16, %struct.pmix_iof_write_event_t, i8, i8, i8 }
%struct.pmix_iof_write_event_t = type { %struct.pmix_list_item_t, i8, i8, i32, ptr, %struct.timeval, i32, %struct.pmix_list_t }

@pmix_class_init_epoch = external global i32, align 4
@pmix_iof_sink_t_class = external global %struct.pmix_class_t, align 8

; Function Attrs: inlinehint nounwind uwtable
define internal void @pmix_obj_run_constructors(ptr noundef %0) #2 {
  %2 = alloca ptr, align 8
  %3 = alloca ptr, align 8
  store ptr %0, ptr %2, align 8, !tbaa !37
  call void @llvm.lifetime.start.p0(i64 8, ptr %3) #10
  %4 = load ptr, ptr %2, align 8, !tbaa !37
  %5 = getelementptr inbounds nuw %struct.pmix_object_t, ptr %4, i32 0, i32 1
  %6 = load ptr, ptr %5, align 8, !tbaa !46
  %7 = getelementptr inbounds nuw %struct.pmix_class_t, ptr %6, i32 0, i32 6
  %8 = load ptr, ptr %7, align 8, !tbaa !92
  store ptr %8, ptr %3, align 8, !tbaa !9
  br label %9

9:                                                ; preds = %13, %1
  %10 = load ptr, ptr %3, align 8, !tbaa !9
  %11 = load ptr, ptr %10, align 8, !tbaa !9
  %12 = icmp ne ptr null, %11
  br i1 %12, label %13, label %19

13:                                               ; preds = %9
  %14 = load ptr, ptr %3, align 8, !tbaa !9
  %15 = load ptr, ptr %14, align 8, !tbaa !9
  %16 = load ptr, ptr %2, align 8, !tbaa !37
  call void %15(ptr noundef %16)
  %17 = load ptr, ptr %3, align 8, !tbaa !9
  %18 = getelementptr inbounds nuw ptr, ptr %17, i32 1
  store ptr %18, ptr %3, align 8, !tbaa !9
  br label %9, !llvm.loop !93

19:                                               ; preds = %9
  call void @llvm.lifetime.end.p0(i64 8, ptr %3) #10
  ret void
}

; Function Attrs: inlinehint nounwind uwtable
define internal void @pmix_obj_construct_tma(ptr noundef %0, ptr noundef %1) #2 {
  %3 = alloca ptr, align 8
  %4 = alloca ptr, align 8
  store ptr %0, ptr %3, align 8, !tbaa !37
  store ptr %1, ptr %4, align 8, !tbaa !51
  %5 = load ptr, ptr %4, align 8, !tbaa !51
  %6 = icmp eq ptr null, %5
  br i1 %6, label %7, label %32

7:                                                ; preds = %2
  %8 = load ptr, ptr %3, align 8, !tbaa !37
  %9 = getelementptr inbounds nuw %struct.pmix_object_t, ptr %8, i32 0, i32 3
  %10 = getelementptr inbounds nuw %struct.pmix_tma, ptr %9, i32 0, i32 0
  store ptr null, ptr %10, align 8, !tbaa !84
  %11 = load ptr, ptr %3, align 8, !tbaa !37
  %12 = getelementptr inbounds nuw %struct.pmix_object_t, ptr %11, i32 0, i32 3
  %13 = getelementptr inbounds nuw %struct.pmix_tma, ptr %12, i32 0, i32 1
  store ptr null, ptr %13, align 8, !tbaa !85
  %14 = load ptr, ptr %3, align 8, !tbaa !37
  %15 = getelementptr inbounds nuw %struct.pmix_object_t, ptr %14, i32 0, i32 3
  %16 = getelementptr inbounds nuw %struct.pmix_tma, ptr %15, i32 0, i32 2
  store ptr null, ptr %16, align 8, !tbaa !86
  %17 = load ptr, ptr %3, align 8, !tbaa !37
  %18 = getelementptr inbounds nuw %struct.pmix_object_t, ptr %17, i32 0, i32 3
  %19 = getelementptr inbounds nuw %struct.pmix_tma, ptr %18, i32 0, i32 3
  store ptr null, ptr %19, align 8, !tbaa !87
  %20 = load ptr, ptr %3, align 8, !tbaa !37
  %21 = getelementptr inbounds nuw %struct.pmix_object_t, ptr %20, i32 0, i32 3
  %22 = getelementptr inbounds nuw %struct.pmix_tma, ptr %21, i32 0, i32 4
  store ptr null, ptr %22, align 8, !tbaa !88
  %23 = load ptr, ptr %3, align 8, !tbaa !37
  %24 = getelementptr inbounds nuw %struct.pmix_object_t, ptr %23, i32 0, i32 3
  %25 = getelementptr inbounds nuw %struct.pmix_tma, ptr %24, i32 0, i32 5
  store ptr null, ptr %25, align 8, !tbaa !39
  %26 = load ptr, ptr %3, align 8, !tbaa !37
  %27 = getelementptr inbounds nuw %struct.pmix_object_t, ptr %26, i32 0, i32 3
  %28 = getelementptr inbounds nuw %struct.pmix_tma, ptr %27, i32 0, i32 6
  store ptr null, ptr %28, align 8, !tbaa !89
  %29 = load ptr, ptr %3, align 8, !tbaa !37
  %30 = getelementptr inbounds nuw %struct.pmix_object_t, ptr %29, i32 0, i32 3
  %31 = getelementptr inbounds nuw %struct.pmix_tma, ptr %30, i32 0, i32 7
  store ptr null, ptr %31, align 8, !tbaa !90
  br label %36

32:                                               ; preds = %2
  %33 = load ptr, ptr %3, align 8, !tbaa !37
  %34 = getelementptr inbounds nuw %struct.pmix_object_t, ptr %33, i32 0, i32 3
  %35 = load ptr, ptr %4, align 8, !tbaa !51
  call void @llvm.memcpy.p0.p0.i64(ptr align 8 %34, ptr align 8 %35, i64 64, i1 false), !tbaa.struct !91
  br label %36

36:                                               ; preds = %32, %7
  ret void
}

; Function Attrs: nounwind uwtable
define internal void @chcon(ptr noundef %0) #0 {
  %2 = alloca ptr, align 8
  store ptr %0, ptr %2, align 8, !tbaa !9
  %3 = load ptr, ptr %2, align 8, !tbaa !9
  %4 = getelementptr inbounds nuw %struct.pmix_pfexec_child_t, ptr %3, i32 0, i32 1
  call void @llvm.memset.p0.i64(ptr align 8 %4, i8 0, i64 128, i1 false)
  %5 = load ptr, ptr %2, align 8, !tbaa !9
  %6 = getelementptr inbounds nuw %struct.pmix_pfexec_child_t, ptr %5, i32 0, i32 2
  call void @PMIx_Load_procid(ptr noundef %6, ptr noundef null, i32 noundef -1)
  %7 = load ptr, ptr %2, align 8, !tbaa !9
  %8 = getelementptr inbounds nuw %struct.pmix_pfexec_child_t, ptr %7, i32 0, i32 3
  store i32 0, ptr %8, align 4, !tbaa !61
  %9 = load ptr, ptr %2, align 8, !tbaa !9
  %10 = getelementptr inbounds nuw %struct.pmix_pfexec_child_t, ptr %9, i32 0, i32 4
  store i8 0, ptr %10, align 8, !tbaa !67
  %11 = load ptr, ptr %2, align 8, !tbaa !9
  %12 = getelementptr inbounds nuw %struct.pmix_pfexec_child_t, ptr %11, i32 0, i32 6
  %13 = getelementptr inbounds [2 x i32], ptr %12, i64 0, i64 0
  store i32 -1, ptr %13, align 8, !tbaa !3
  %14 = load ptr, ptr %2, align 8, !tbaa !9
  %15 = getelementptr inbounds nuw %struct.pmix_pfexec_child_t, ptr %14, i32 0, i32 6
  %16 = getelementptr inbounds [2 x i32], ptr %15, i64 0, i64 1
  store i32 -1, ptr %16, align 4, !tbaa !3
  %17 = load ptr, ptr %2, align 8, !tbaa !9
  %18 = getelementptr inbounds nuw %struct.pmix_pfexec_child_t, ptr %17, i32 0, i32 7
  call void @llvm.memset.p0.i64(ptr align 8 %18, i8 0, i64 32, i1 false)
  %19 = load ptr, ptr %2, align 8, !tbaa !9
  %20 = getelementptr inbounds nuw %struct.pmix_pfexec_child_t, ptr %19, i32 0, i32 7
  %21 = getelementptr inbounds nuw %struct.pmix_pfexec_base_io_conf_t, ptr %20, i32 0, i32 2
  %22 = getelementptr inbounds [2 x i32], ptr %21, i64 0, i64 0
  store i32 -1, ptr %22, align 8, !tbaa !3
  %23 = load ptr, ptr %2, align 8, !tbaa !9
  %24 = getelementptr inbounds nuw %struct.pmix_pfexec_child_t, ptr %23, i32 0, i32 7
  %25 = getelementptr inbounds nuw %struct.pmix_pfexec_base_io_conf_t, ptr %24, i32 0, i32 2
  %26 = getelementptr inbounds [2 x i32], ptr %25, i64 0, i64 1
  store i32 -1, ptr %26, align 4, !tbaa !3
  %27 = load ptr, ptr %2, align 8, !tbaa !9
  %28 = getelementptr inbounds nuw %struct.pmix_pfexec_child_t, ptr %27, i32 0, i32 7
  %29 = getelementptr inbounds nuw %struct.pmix_pfexec_base_io_conf_t, ptr %28, i32 0, i32 3
  %30 = getelementptr inbounds [2 x i32], ptr %29, i64 0, i64 0
  store i32 -1, ptr %30, align 8, !tbaa !3
  %31 = load ptr, ptr %2, align 8, !tbaa !9
  %32 = getelementptr inbounds nuw %struct.pmix_pfexec_child_t, ptr %31, i32 0, i32 7
  %33 = getelementptr inbounds nuw %struct.pmix_pfexec_base_io_conf_t, ptr %32, i32 0, i32 3
  %34 = getelementptr inbounds [2 x i32], ptr %33, i64 0, i64 1
  store i32 -1, ptr %34, align 4, !tbaa !3
  %35 = load ptr, ptr %2, align 8, !tbaa !9
  %36 = getelementptr inbounds nuw %struct.pmix_pfexec_child_t, ptr %35, i32 0, i32 7
  %37 = getelementptr inbounds nuw %struct.pmix_pfexec_base_io_conf_t, ptr %36, i32 0, i32 4
  %38 = getelementptr inbounds [2 x i32], ptr %37, i64 0, i64 0
  store i32 -1, ptr %38, align 8, !tbaa !3
  %39 = load ptr, ptr %2, align 8, !tbaa !9
  %40 = getelementptr inbounds nuw %struct.pmix_pfexec_child_t, ptr %39, i32 0, i32 7
  %41 = getelementptr inbounds nuw %struct.pmix_pfexec_base_io_conf_t, ptr %40, i32 0, i32 4
  %42 = getelementptr inbounds [2 x i32], ptr %41, i64 0, i64 1
  store i32 -1, ptr %42, align 4, !tbaa !3
  br label %43

43:                                               ; preds = %1
  br label %44

44:                                               ; preds = %43
  br label %45

45:                                               ; preds = %44
  %46 = load i32, ptr @pmix_class_init_epoch, align 4, !tbaa !3
  %47 = load i32, ptr getelementptr inbounds nuw (%struct.pmix_class_t, ptr @pmix_iof_sink_t_class, i32 0, i32 4), align 8, !tbaa !55
  %48 = icmp ne i32 %46, %47
  br i1 %48, label %49, label %50

49:                                               ; preds = %45
  call void @pmix_class_initialize(ptr noundef @pmix_iof_sink_t_class)
  br label %50

50:                                               ; preds = %49, %45
  %51 = load ptr, ptr %2, align 8, !tbaa !9
  %52 = getelementptr inbounds nuw %struct.pmix_pfexec_child_t, ptr %51, i32 0, i32 8
  %53 = getelementptr inbounds nuw %struct.pmix_object_t, ptr %52, i32 0, i32 1
  store ptr @pmix_iof_sink_t_class, ptr %53, align 8, !tbaa !46
  %54 = load ptr, ptr %2, align 8, !tbaa !9
  %55 = getelementptr inbounds nuw %struct.pmix_pfexec_child_t, ptr %54, i32 0, i32 8
  %56 = getelementptr inbounds nuw %struct.pmix_object_t, ptr %55, i32 0, i32 2
  store i32 1, ptr %56, align 8, !tbaa !45
  %57 = load ptr, ptr %2, align 8, !tbaa !9
  %58 = getelementptr inbounds nuw %struct.pmix_pfexec_child_t, ptr %57, i32 0, i32 8
  call void @pmix_obj_construct_tma(ptr noundef %58, ptr noundef null)
  %59 = load ptr, ptr %2, align 8, !tbaa !9
  %60 = getelementptr inbounds nuw %struct.pmix_pfexec_child_t, ptr %59, i32 0, i32 8
  call void @pmix_obj_run_constructors(ptr noundef %60)
  br label %61

61:                                               ; preds = %50
  br label %62

62:                                               ; preds = %61
  br label %63

63:                                               ; preds = %62
  %64 = load ptr, ptr %2, align 8, !tbaa !9
  %65 = getelementptr inbounds nuw %struct.pmix_pfexec_child_t, ptr %64, i32 0, i32 9
  store ptr null, ptr %65, align 8, !tbaa !68
  %66 = load ptr, ptr %2, align 8, !tbaa !9
  %67 = getelementptr inbounds nuw %struct.pmix_pfexec_child_t, ptr %66, i32 0, i32 10
  store ptr null, ptr %67, align 8, !tbaa !69
  ret void
}