; Function Attrs: nounwind uwtable
define internal void @chcon(ptr noundef initializes((144, 272)) %0) #0 {
  %2 = getelementptr inbounds nuw i8, ptr %0, i64 144
  tail call void @llvm.memset.p0.i64(ptr noundef nonnull align 8 dereferenceable(128) %2, i8 0, i64 128, i1 false)
  %3 = getelementptr inbounds nuw i8, ptr %0, i64 272
  tail call void @PMIx_Load_procid(ptr noundef nonnull %3, ptr noundef null, i32 noundef -1) #10
  %4 = getelementptr inbounds nuw i8, ptr %0, i64 532
  store i32 0, ptr %4, align 4, !tbaa !53
  %5 = getelementptr inbounds nuw i8, ptr %0, i64 536
  store i8 0, ptr %5, align 8, !tbaa !59
  %6 = getelementptr inbounds nuw i8, ptr %0, i64 544
  store i32 -1, ptr %6, align 8, !tbaa !29
  %7 = getelementptr inbounds nuw i8, ptr %0, i64 548
  store i32 -1, ptr %7, align 4, !tbaa !29
  %8 = getelementptr inbounds nuw i8, ptr %0, i64 552
  store i64 0, ptr %8, align 8
  %9 = getelementptr inbounds nuw i8, ptr %0, i64 560
  tail call void @llvm.memset.p0.i64(ptr noundef nonnull align 8 dereferenceable(24) %9, i8 -1, i64 24, i1 false)
  %10 = load i32, ptr @pmix_class_init_epoch, align 4, !tbaa !29
  %11 = load i32, ptr getelementptr inbounds nuw (i8, ptr @pmix_iof_sink_t_class, i64 32), align 8, !tbaa !42
  %.not = icmp eq i32 %10, %11
  br i1 %.not, label %13, label %12

12:                                               ; preds = %1
  tail call void @pmix_class_initialize(ptr noundef nonnull @pmix_iof_sink_t_class) #10
  br label %13

13:                                               ; preds = %12, %1
  %14 = getelementptr inbounds nuw i8, ptr %0, i64 584
  %15 = getelementptr inbounds nuw i8, ptr %0, i64 624
  store ptr @pmix_iof_sink_t_class, ptr %15, align 8, !tbaa !31
  %16 = getelementptr inbounds nuw i8, ptr %0, i64 632
  store i32 1, ptr %16, align 8, !tbaa !30
  %17 = getelementptr inbounds nuw i8, ptr %0, i64 640
  tail call void @llvm.memset.p0.i64(ptr noundef nonnull align 8 dereferenceable(64) %17, i8 0, i64 64, i1 false)
  %18 = load ptr, ptr getelementptr inbounds nuw (i8, ptr @pmix_iof_sink_t_class, i64 40), align 8, !tbaa !43
  %19 = load ptr, ptr %18, align 8, !tbaa !35
  %.not6.i = icmp eq ptr %19, null
  br i1 %.not6.i, label %pmix_obj_run_constructors.exit, label %.lr.ph.i

.lr.ph.i:                                         ; preds = %13, %.lr.ph.i
  %20 = phi ptr [ %22, %.lr.ph.i ], [ %19, %13 ]
  %.07.i = phi ptr [ %21, %.lr.ph.i ], [ %18, %13 ]
  tail call void %20(ptr noundef nonnull %14) #10
  %21 = getelementptr inbounds nuw i8, ptr %.07.i, i64 8
  %22 = load ptr, ptr %21, align 8, !tbaa !35
  %.not.i = icmp eq ptr %22, null
  br i1 %.not.i, label %pmix_obj_run_constructors.exit, label %.lr.ph.i, !llvm.loop !44

pmix_obj_run_constructors.exit:                   ; preds = %.lr.ph.i, %13
  %23 = getelementptr inbounds nuw i8, ptr %0, i64 1456
  tail call void @llvm.memset.p0.i64(ptr noundef nonnull align 8 dereferenceable(16) %23, i8 0, i64 16, i1 false)
  ret void
}